target datalayout = "e-m:e-p270:32:32-p271:32:32-p272:64:64-i64:64-i128:128-f80:128-n8:16:32:64-S128"
target triple = "x86_64-pc-linux-gnu"

%struct.CVodeMemRec = type { double, ptr, ptr, i32, i32, i32, double, double, ptr, i32, ptr, ptr, i32, ptr, i32, i32, double, double, ptr, i32, i32, i32, ptr, ptr, ptr, i32, i32, ptr, ptr, ptr, i32, double, i32, i32, double, ptr, ptr, i32, ptr, ptr, i32, i32, i32, double, ptr, ptr, [13 x ptr], ptr, ptr, ptr, ptr, ptr, [13 x ptr], ptr, ptr, ptr, ptr, [13 x ptr], ptr, ptr, ptr, ptr, ptr, i32, [13 x ptr], ptr, ptr, ptr, ptr, ptr, i32, double, i32, i32, i32, i32, i32, double, double, double, double, double, double, double, double, [14 x double], [6 x double], [13 x double], double, double, double, double, double, double, double, double, double, double, double, i32, ptr, i32, i64, i32, i32, i32, i32, i32, double, double, double, i64, i64, i64, i64, i64, i64, i64, i64, i64, ptr, i64, i64, ptr, i64, i64, i64, i64, i64, i64, i32, i64, i64, i64, i64, i64, i64, double, double, double, ptr, ptr, ptr, ptr, ptr, i32, i32, i64, double, double, double, i32, double, i32, i32, i32, i32, i32, i32, i32, i32, i32, i32, i32, i32, i32, i32, i32, i32, ptr, ptr, ptr, i32, [6 x [4 x double]], i32, i64, ptr, i32, ptr, ptr, double, double, double, ptr, ptr, ptr, double, double, i32, i32, i64, ptr, i32, i32, ptr, i32 }

@.str = private unnamed_addr constant [7 x i8] c"CVODES\00", align 1
@.str.6 = private unnamed_addr constant [26 x i8] c"cvode_mem = NULL illegal.\00", align 1
@.str.20 = private unnamed_addr constant [38 x i8] c"Quadrature integration not activated.\00", align 1
@.str.86 = private unnamed_addr constant [20 x i8] c"dky = NULL illegal.\00", align 1
@.str.87 = private unnamed_addr constant [21 x i8] c"Illegal value for k.\00", align 1
@.str.88 = private unnamed_addr constant [75 x i8] c"Illegal value for t.t = %lg is not between tcur - hu = %lg and tcur = %lg.\00", align 1
@.str.90 = private unnamed_addr constant [16 x i8] c"CVodeGetQuadDky\00", align 1

; Function Attrs: nounwind uwtable
define i32 @CVodeGetQuadDky(ptr noundef %0, double noundef %1, i32 noundef %2, ptr noundef %3) #0 {
  %5 = alloca i32, align 4
  %6 = alloca ptr, align 8
  %7 = alloca double, align 8
  %8 = alloca i32, align 4
  %9 = alloca ptr, align 8
  %10 = alloca double, align 8
  %11 = alloca double, align 8
  %12 = alloca double, align 8
  %13 = alloca double, align 8
  %14 = alloca double, align 8
  %15 = alloca double, align 8
  %16 = alloca i32, align 4
  %17 = alloca i32, align 4
  %18 = alloca ptr, align 8
  %19 = alloca i32, align 4
  store ptr %0, ptr %6, align 8, !tbaa !101
  store double %1, ptr %7, align 8, !tbaa !102
  store i32 %2, ptr %8, align 4, !tbaa !3
  store ptr %3, ptr %9, align 8, !tbaa !103
  call void @llvm.lifetime.start.p0(i64 8, ptr %10) #8
  call void @llvm.lifetime.start.p0(i64 8, ptr %11) #8
  call void @llvm.lifetime.start.p0(i64 8, ptr %12) #8
  call void @llvm.lifetime.start.p0(i64 8, ptr %13) #8
  call void @llvm.lifetime.start.p0(i64 8, ptr %14) #8
  call void @llvm.lifetime.start.p0(i64 8, ptr %15) #8
  call void @llvm.lifetime.start.p0(i64 4, ptr %16) #8
  call void @llvm.lifetime.start.p0(i64 4, ptr %17) #8
  call void @llvm.lifetime.start.p0(i64 8, ptr %18) #8
  %20 = load ptr, ptr %6, align 8, !tbaa !101
  %21 = icmp eq ptr %20, null
  br i1 %21, label %22, label %23

22:                                               ; preds = %4
  call void (ptr, i32, ptr, ptr, ptr, ...) @cvProcessError(ptr noundef null, i32 noundef -21, ptr noundef @.str, ptr noundef @.str.90, ptr noundef @.str.6)
  store i32 -21, ptr %5, align 4
  store i32 1, ptr %19, align 4
  br label %174

23:                                               ; preds = %4
  %24 = load ptr, ptr %6, align 8, !tbaa !101
  store ptr %24, ptr %18, align 8, !tbaa !7
  %25 = load ptr, ptr %18, align 8, !tbaa !7
  %26 = getelementptr inbounds nuw %struct.CVodeMemRec, ptr %25, i32 0, i32 12
  %27 = load i32, ptr %26, align 8, !tbaa !54
  %28 = icmp ne i32 %27, 1
  br i1 %28, label %29, label %31

29:                                               ; preds = %23
  %30 = load ptr, ptr %18, align 8, !tbaa !7
  call void (ptr, i32, ptr, ptr, ptr, ...) @cvProcessError(ptr noundef %30, i32 noundef -30, ptr noundef @.str, ptr noundef @.str.90, ptr noundef @.str.20)
  store i32 -30, ptr %5, align 4
  store i32 1, ptr %19, align 4
  br label %174

31:                                               ; preds = %23
  %32 = load ptr, ptr %9, align 8, !tbaa !103
  %33 = icmp eq ptr %32, null
  br i1 %33, label %34, label %36

34:                                               ; preds = %31
  %35 = load ptr, ptr %18, align 8, !tbaa !7
  call void (ptr, i32, ptr, ptr, ptr, ...) @cvProcessError(ptr noundef %35, i32 noundef -26, ptr noundef @.str, ptr noundef @.str.90, ptr noundef @.str.86)
  store i32 -26, ptr %5, align 4
  store i32 1, ptr %19, align 4
  br label %174

36:                                               ; preds = %31
  %37 = load i32, ptr %8, align 4, !tbaa !3
  %38 = icmp slt i32 %37, 0
  br i1 %38, label %45, label %39

39:                                               ; preds = %36
  %40 = load i32, ptr %8, align 4, !tbaa !3
  %41 = load ptr, ptr %18, align 8, !tbaa !7
  %42 = getelementptr inbounds nuw %struct.CVodeMemRec, ptr %41, i32 0, i32 72
  %43 = load i32, ptr %42, align 8, !tbaa !119
  %44 = icmp sgt i32 %40, %43
  br i1 %44, label %45, label %47

45:                                               ; preds = %39, %36
  %46 = load ptr, ptr %18, align 8, !tbaa !7
  call void (ptr, i32, ptr, ptr, ptr, ...) @cvProcessError(ptr noundef %46, i32 noundef -24, ptr noundef @.str, ptr noundef @.str.90, ptr noundef @.str.87)
  store i32 -24, ptr %5, align 4
  store i32 1, ptr %19, align 4
  br label %174

47:                                               ; preds = %39
  %48 = load ptr, ptr %18, align 8, !tbaa !7
  %49 = getelementptr inbounds nuw %struct.CVodeMemRec, ptr %48, i32 0, i32 0
  %50 = load double, ptr %49, align 8, !tbaa !22
  %51 = fmul double 1.000000e+02, %50
  %52 = load ptr, ptr %18, align 8, !tbaa !7
  %53 = getelementptr inbounds nuw %struct.CVodeMemRec, ptr %52, i32 0, i32 83
  %54 = load double, ptr %53, align 8, !tbaa !118
  %55 = call double @SUNRabs(double noundef %54)
  %56 = load ptr, ptr %18, align 8, !tbaa !7
  %57 = getelementptr inbounds nuw %struct.CVodeMemRec, ptr %56, i32 0, i32 149
  %58 = load double, ptr %57, align 8, !tbaa !124
  %59 = call double @SUNRabs(double noundef %58)
  %60 = fadd double %55, %59
  %61 = fmul double %51, %60
  store double %61, ptr %13, align 8, !tbaa !102
  %62 = load ptr, ptr %18, align 8, !tbaa !7
  %63 = getelementptr inbounds nuw %struct.CVodeMemRec, ptr %62, i32 0, i32 149
  %64 = load double, ptr %63, align 8, !tbaa !124
  %65 = fcmp olt double %64, 0.000000e+00
  br i1 %65, label %66, label %69

66:                                               ; preds = %47
  %67 = load double, ptr %13, align 8, !tbaa !102
  %68 = fneg double %67
  store double %68, ptr %13, align 8, !tbaa !102
  br label %69

69:                                               ; preds = %66, %47
  %70 = load ptr, ptr %18, align 8, !tbaa !7
  %71 = getelementptr inbounds nuw %struct.CVodeMemRec, ptr %70, i32 0, i32 83
  %72 = load double, ptr %71, align 8, !tbaa !118
  %73 = load ptr, ptr %18, align 8, !tbaa !7
  %74 = getelementptr inbounds nuw %struct.CVodeMemRec, ptr %73, i32 0, i32 149
  %75 = load double, ptr %74, align 8, !tbaa !124
  %76 = fsub double %72, %75
  %77 = load double, ptr %13, align 8, !tbaa !102
  %78 = fsub double %76, %77
  store double %78, ptr %14, align 8, !tbaa !102
  %79 = load ptr, ptr %18, align 8, !tbaa !7
  %80 = getelementptr inbounds nuw %struct.CVodeMemRec, ptr %79, i32 0, i32 83
  %81 = load double, ptr %80, align 8, !tbaa !118
  %82 = load double, ptr %13, align 8, !tbaa !102
  %83 = fadd double %81, %82
  store double %83, ptr %15, align 8, !tbaa !102
  %84 = load double, ptr %7, align 8, !tbaa !102
  %85 = load double, ptr %14, align 8, !tbaa !102
  %86 = fsub double %84, %85
  %87 = load double, ptr %7, align 8, !tbaa !102
  %88 = load double, ptr %15, align 8, !tbaa !102
  %89 = fsub double %87, %88
  %90 = fmul double %86, %89
  %91 = fcmp ogt double %90, 0.000000e+00
  br i1 %91, label %92, label %94

92:                                               ; preds = %69
  %93 = load ptr, ptr %18, align 8, !tbaa !7
  call void (ptr, i32, ptr, ptr, ptr, ...) @cvProcessError(ptr noundef %93, i32 noundef -25, ptr noundef @.str, ptr noundef @.str.90, ptr noundef @.str.88)
  store i32 -25, ptr %5, align 4
  store i32 1, ptr %19, align 4
  br label %174

94:                                               ; preds = %69
  %95 = load double, ptr %7, align 8, !tbaa !102
  %96 = load ptr, ptr %18, align 8, !tbaa !7
  %97 = getelementptr inbounds nuw %struct.CVodeMemRec, ptr %96, i32 0, i32 83
  %98 = load double, ptr %97, align 8, !tbaa !118
  %99 = fsub double %95, %98
  %100 = load ptr, ptr %18, align 8, !tbaa !7
  %101 = getelementptr inbounds nuw %struct.CVodeMemRec, ptr %100, i32 0, i32 78
  %102 = load double, ptr %101, align 8, !tbaa !244
  %103 = fdiv double %99, %102
  store double %103, ptr %10, align 8, !tbaa !102
  %104 = load ptr, ptr %18, align 8, !tbaa !7
  %105 = getelementptr inbounds nuw %struct.CVodeMemRec, ptr %104, i32 0, i32 72
  %106 = load i32, ptr %105, align 8, !tbaa !119
  store i32 %106, ptr %17, align 4, !tbaa !3
  br label %107

107:                                              ; preds = %157, %94
  %108 = load i32, ptr %17, align 4, !tbaa !3
  %109 = load i32, ptr %8, align 4, !tbaa !3
  %110 = icmp sge i32 %108, %109
  br i1 %110, label %111, label %160

111:                                              ; preds = %107
  store double 1.000000e+00, ptr %11, align 8, !tbaa !102
  %112 = load i32, ptr %17, align 4, !tbaa !3
  store i32 %112, ptr %16, align 4, !tbaa !3
  br label %113

113:                                              ; preds = %125, %111
  %114 = load i32, ptr %16, align 4, !tbaa !3
  %115 = load i32, ptr %17, align 4, !tbaa !3
  %116 = load i32, ptr %8, align 4, !tbaa !3
  %117 = sub nsw i32 %115, %116
  %118 = add nsw i32 %117, 1
  %119 = icmp sge i32 %114, %118
  br i1 %119, label %120, label %128

120:                                              ; preds = %113
  %121 = load i32, ptr %16, align 4, !tbaa !3
  %122 = sitofp i32 %121 to double
  %123 = load double, ptr %11, align 8, !tbaa !102
  %124 = fmul double %123, %122
  store double %124, ptr %11, align 8, !tbaa !102
  br label %125

125:                                              ; preds = %120
  %126 = load i32, ptr %16, align 4, !tbaa !3
  %127 = add nsw i32 %126, -1
  store i32 %127, ptr %16, align 4, !tbaa !3
  br label %113, !llvm.loop !279

128:                                              ; preds = %113
  %129 = load i32, ptr %17, align 4, !tbaa !3
  %130 = load ptr, ptr %18, align 8, !tbaa !7
  %131 = getelementptr inbounds nuw %struct.CVodeMemRec, ptr %130, i32 0, i32 72
  %132 = load i32, ptr %131, align 8, !tbaa !119
  %133 = icmp eq i32 %129, %132
  br i1 %133, label %134, label %145

134:                                              ; preds = %128
  %135 = load double, ptr %11, align 8, !tbaa !102
  %136 = load ptr, ptr %18, align 8, !tbaa !7
  %137 = getelementptr inbounds nuw %struct.CVodeMemRec, ptr %136, i32 0, i32 52
  %138 = load ptr, ptr %18, align 8, !tbaa !7
  %139 = getelementptr inbounds nuw %struct.CVodeMemRec, ptr %138, i32 0, i32 72
  %140 = load i32, ptr %139, align 8, !tbaa !119
  %141 = sext i32 %140 to i64
  %142 = getelementptr inbounds [13 x ptr], ptr %137, i64 0, i64 %141
  %143 = load ptr, ptr %142, align 8, !tbaa !103
  %144 = load ptr, ptr %9, align 8, !tbaa !103
  call void @N_VScale(double noundef %135, ptr noundef %143, ptr noundef %144)
  br label %156

145:                                              ; preds = %128
  %146 = load double, ptr %11, align 8, !tbaa !102
  %147 = load ptr, ptr %18, align 8, !tbaa !7
  %148 = getelementptr inbounds nuw %struct.CVodeMemRec, ptr %147, i32 0, i32 52
  %149 = load i32, ptr %17, align 4, !tbaa !3
  %150 = sext i32 %149 to i64
  %151 = getelementptr inbounds [13 x ptr], ptr %148, i64 0, i64 %150
  %152 = load ptr, ptr %151, align 8, !tbaa !103
  %153 = load double, ptr %10, align 8, !tbaa !102
  %154 = load ptr, ptr %9, align 8, !tbaa !103
  %155 = load ptr, ptr %9, align 8, !tbaa !103
  call void @N_VLinearSum(double noundef %146, ptr noundef %152, double noundef %153, ptr noundef %154, ptr noundef %155)
  br label %156

156:                                              ; preds = %145, %134
  br label %157

157:                                              ; preds = %156
  %158 = load i32, ptr %17, align 4, !tbaa !3
  %159 = add nsw i32 %158, -1
  store i32 %159, ptr %17, align 4, !tbaa !3
  br label %107, !llvm.loop !280

160:                                              ; preds = %107
  %161 = load i32, ptr %8, align 4, !tbaa !3
  %162 = icmp eq i32 %161, 0
  br i1 %162, label %163, label %164

163:                                              ; preds = %160
  store i32 0, ptr %5, align 4
  store i32 1, ptr %19, align 4
  br label %174

164:                                              ; preds = %160
  %165 = load ptr, ptr %18, align 8, !tbaa !7
  %166 = getelementptr inbounds nuw %struct.CVodeMemRec, ptr %165, i32 0, i32 78
  %167 = load double, ptr %166, align 8, !tbaa !244
  %168 = load i32, ptr %8, align 4, !tbaa !3
  %169 = sub nsw i32 0, %168
  %170 = call double @SUNRpowerI(double noundef %167, i32 noundef %169)
  store double %170, ptr %12, align 8, !tbaa !102
  %171 = load double, ptr %12, align 8, !tbaa !102
  %172 = load ptr, ptr %9, align 8, !tbaa !103
  %173 = load ptr, ptr %9, align 8, !tbaa !103
  call void @N_VScale(double noundef %171, ptr noundef %172, ptr noundef %173)
  store i32 0, ptr %5, align 4
  store i32 1, ptr %19, align 4
  br label %174

174:                                              ; preds = %164, %163, %92, %45, %34, %29, %22
  call void @llvm.lifetime.end.p0(i64 8, ptr %18) #8
  call void @llvm.lifetime.end.p0(i64 4, ptr %17) #8
  call void @llvm.lifetime.end.p0(i64 4, ptr %16) #8
  call void @llvm.lifetime.end.p0(i64 8, ptr %15) #8
  call void @llvm.lifetime.end.p0(i64 8, ptr %14) #8
  call void @llvm.lifetime.end.p0(i64 8, ptr %13) #8
  call void @llvm.lifetime.end.p0(i64 8, ptr %12) #8
  call void @llvm.lifetime.end.p0(i64 8, ptr %11) #8
  call void @llvm.lifetime.end.p0(i64 8, ptr %10) #8
  %175 = load i32, ptr %5, align 4
  ret i32 %175
}