; Function Attrs: nounwind uwtable
define range(i32 -30, 1) i32 @CVodeGetQuadDky(ptr noundef captures(address_is_null) %0, double noundef %1, i32 noundef %2, ptr noundef %3) local_unnamed_addr #0 {
  %5 = icmp eq ptr %0, null
  br i1 %5, label %6, label %7

6:                                                ; preds = %4
  tail call void (ptr, i32, ptr, ptr, ptr, ...) @cvProcessError(ptr noundef null, i32 noundef -21, ptr noundef nonnull @.str, ptr noundef nonnull @.str.90, ptr noundef nonnull @.str.6)
  br label %69

7:                                                ; preds = %4
  %8 = getelementptr inbounds nuw i8, ptr %0, i64 88
  %9 = load i32, ptr %8, align 8, !tbaa !125
  %.not = icmp eq i32 %9, 1
  br i1 %.not, label %11, label %10

10:                                               ; preds = %7
  tail call void (ptr, i32, ptr, ptr, ptr, ...) @cvProcessError(ptr noundef nonnull %0, i32 noundef -30, ptr noundef nonnull @.str, ptr noundef nonnull @.str.90, ptr noundef nonnull @.str.20)
  br label %69

11:                                               ; preds = %7
  %12 = icmp eq ptr %3, null
  br i1 %12, label %13, label %14

13:                                               ; preds = %11
  tail call void (ptr, i32, ptr, ptr, ptr, ...) @cvProcessError(ptr noundef nonnull %0, i32 noundef -26, ptr noundef nonnull @.str, ptr noundef nonnull @.str.90, ptr noundef nonnull @.str.86)
  br label %69

14:                                               ; preds = %11
  %15 = icmp slt i32 %2, 0
  br i1 %15, label %20, label %16

16:                                               ; preds = %14
  %17 = getelementptr inbounds nuw i8, ptr %0, i64 912
  %18 = load i32, ptr %17, align 8, !tbaa !85
  %19 = icmp sgt i32 %2, %18
  br i1 %19, label %20, label %21

20:                                               ; preds = %16, %14
  tail call void (ptr, i32, ptr, ptr, ptr, ...) @cvProcessError(ptr noundef nonnull %0, i32 noundef -24, ptr noundef nonnull @.str, ptr noundef nonnull @.str.90, ptr noundef nonnull @.str.87)
  br label %69

21:                                               ; preds = %16
  %22 = load double, ptr %0, align 8, !tbaa !19
  %23 = fmul double %22, 1.000000e+02
  %24 = getelementptr inbounds nuw i8, ptr %0, i64 984
  %25 = load double, ptr %24, align 8, !tbaa !84
  %26 = tail call double @SUNRabs(double noundef %25) #13
  %27 = getelementptr inbounds nuw i8, ptr %0, i64 1728
  %28 = load double, ptr %27, align 8, !tbaa !90
  %29 = tail call double @SUNRabs(double noundef %28) #13
  %30 = fadd double %26, %29
  %31 = fmul double %23, %30
  %32 = load double, ptr %27, align 8, !tbaa !90
  %33 = fcmp olt double %32, 0.000000e+00
  %34 = fneg double %31
  %.060 = select i1 %33, double %34, double %31
  %35 = load double, ptr %24, align 8, !tbaa !84
  %36 = fsub double %35, %32
  %37 = fsub double %36, %.060
  %38 = fadd double %35, %.060
  %39 = fsub double %1, %37
  %40 = fsub double %1, %38
  %41 = fmul double %39, %40
  %42 = fcmp ogt double %41, 0.000000e+00
  br i1 %42, label %43, label %44

43:                                               ; preds = %21
  tail call void (ptr, i32, ptr, ptr, ptr, ...) @cvProcessError(ptr noundef nonnull %0, i32 noundef -25, ptr noundef nonnull @.str, ptr noundef nonnull @.str.90, ptr noundef nonnull @.str.88)
  br label %69

44:                                               ; preds = %21
  %45 = fsub double %1, %35
  %46 = getelementptr inbounds nuw i8, ptr %0, i64 944
  %47 = load double, ptr %46, align 8, !tbaa !222
  %48 = fdiv double %45, %47
  %49 = load i32, ptr %17, align 8, !tbaa !85
  %.not6570 = icmp slt i32 %49, %2
  br i1 %.not6570, label %._crit_edge72, label %.preheader.lr.ph

.preheader.lr.ph:                                 ; preds = %44
  %50 = getelementptr inbounds nuw i8, ptr %0, i64 464
  %.not66.not67.not = icmp eq i32 %2, 0
  br label %.preheader

.preheader:                                       ; preds = %.preheader.lr.ph, %62
  %.05771 = phi i32 [ %49, %.preheader.lr.ph ], [ %63, %62 ]
  %51 = sub nsw i32 %.05771, %2
  br i1 %.not66.not67.not, label %._crit_edge, label %.lr.ph

.lr.ph:                                           ; preds = %.preheader, %.lr.ph
  %.05869 = phi i32 [ %54, %.lr.ph ], [ %.05771, %.preheader ]
  %.05968 = phi double [ %53, %.lr.ph ], [ 1.000000e+00, %.preheader ]
  %52 = sitofp i32 %.05869 to double
  %53 = fmul double %.05968, %52
  %54 = add nsw i32 %.05869, -1
  %.not66.not = icmp sgt i32 %54, %51
  br i1 %.not66.not, label %.lr.ph, label %._crit_edge, !llvm.loop !368

._crit_edge:                                      ; preds = %.lr.ph, %.preheader
  %.059.lcssa = phi double [ 1.000000e+00, %.preheader ], [ %53, %.lr.ph ]
  %55 = load i32, ptr %17, align 8, !tbaa !85
  %56 = icmp eq i32 %.05771, %55
  %57 = zext nneg i32 %.05771 to i64
  %58 = getelementptr inbounds nuw [13 x ptr], ptr %50, i64 0, i64 %57
  %59 = load ptr, ptr %58, align 8, !tbaa !46
  br i1 %56, label %60, label %61

60:                                               ; preds = %._crit_edge
  tail call void @N_VScale(double noundef %.059.lcssa, ptr noundef %59, ptr noundef nonnull %3) #13
  br label %62

61:                                               ; preds = %._crit_edge
  tail call void @N_VLinearSum(double noundef %.059.lcssa, ptr noundef %59, double noundef %48, ptr noundef nonnull %3, ptr noundef nonnull %3) #13
  br label %62

62:                                               ; preds = %60, %61
  %63 = add nsw i32 %.05771, -1
  %.not65.not = icmp sgt i32 %.05771, %2
  br i1 %.not65.not, label %.preheader, label %._crit_edge72, !llvm.loop !369

._crit_edge72:                                    ; preds = %62, %44
  %64 = icmp eq i32 %2, 0
  br i1 %64, label %69, label %65

65:                                               ; preds = %._crit_edge72
  %66 = load double, ptr %46, align 8, !tbaa !222
  %67 = sub nsw i32 0, %2
  %68 = tail call double @SUNRpowerI(double noundef %66, i32 noundef %67) #13
  tail call void @N_VScale(double noundef %68, ptr noundef nonnull %3, ptr noundef nonnull %3) #13
  br label %69

69:                                               ; preds = %._crit_edge72, %65, %43, %20, %13, %10, %6
  %.0 = phi i32 [ -21, %6 ], [ -30, %10 ], [ -26, %13 ], [ -24, %20 ], [ -25, %43 ], [ 0, %65 ], [ 0, %._crit_edge72 ]
  ret i32 %.0
}